target datalayout = "e-m:e-p270:32:32-p271:32:32-p272:64:64-i64:64-i128:128-f80:128-n8:16:32:64-S128"
target triple = "x86_64-pc-linux-gnu"

%"class.llvm::StringRef" = type { ptr, i64 }
%"class.std::__cxx11::basic_string" = type { %"struct.std::__cxx11::basic_string<char>::_Alloc_hider", i64, %union.anon }
%"struct.std::__cxx11::basic_string<char>::_Alloc_hider" = type { ptr }
%union.anon = type { i64, [8 x i8] }
%"class.llvm::Twine" = type <{ %"union.llvm::Twine::Child", %"union.llvm::Twine::Child", i8, i8, [6 x i8] }>
%"union.llvm::Twine::Child" = type { %struct.anon }
%struct.anon = type { ptr, i64 }
%"class.llvm::MCSymbol" = type { ptr, i64, i32, %union.anon.145 }
%union.anon.145 = type { i64 }
%"class.llvm::MCSymbolWasm" = type { %"class.llvm::MCSymbol", %"class.std::optional", i8, i8, i8, i8, i8, i8, [2 x i8], %"class.std::optional.146", %"class.std::optional.146", %"class.std::optional.146", ptr, %"class.std::optional.154", [5 x i8], %"class.std::optional.160", ptr }
%"class.std::optional" = type { %"struct.std::_Optional_base" }
%"struct.std::_Optional_base" = type { %"struct.std::_Optional_payload" }
%"struct.std::_Optional_payload" = type { %"struct.std::_Optional_payload_base.base", [3 x i8] }
%"struct.std::_Optional_payload_base.base" = type <{ %"union.std::_Optional_payload_base<llvm::wasm::WasmSymbolType>::_Storage", i8 }>
%"union.std::_Optional_payload_base<llvm::wasm::WasmSymbolType>::_Storage" = type { i32 }
%"class.std::optional.146" = type { %"struct.std::_Optional_base.147" }
%"struct.std::_Optional_base.147" = type { %"struct.std::_Optional_payload.149" }
%"struct.std::_Optional_payload.149" = type { %"struct.std::_Optional_payload_base.base.151", [7 x i8] }
%"struct.std::_Optional_payload_base.base.151" = type <{ %"union.std::_Optional_payload_base<llvm::StringRef>::_Storage", i8 }>
%"union.std::_Optional_payload_base<llvm::StringRef>::_Storage" = type { %"class.llvm::StringRef" }
%"class.std::optional.154" = type { %"struct.std::_Optional_base.155" }
%"struct.std::_Optional_base.155" = type { %"struct.std::_Optional_payload.157" }
%"struct.std::_Optional_payload.157" = type { %"struct.std::_Optional_payload_base.158" }
%"struct.std::_Optional_payload_base.158" = type { %"union.std::_Optional_payload_base<llvm::wasm::WasmGlobalType>::_Storage", i8 }
%"union.std::_Optional_payload_base<llvm::wasm::WasmGlobalType>::_Storage" = type { %"struct.llvm::wasm::WasmGlobalType" }
%"struct.llvm::wasm::WasmGlobalType" = type { i8, i8 }
%"class.std::optional.160" = type { %"struct.std::_Optional_base.161" }
%"struct.std::_Optional_base.161" = type { %"struct.std::_Optional_payload.163" }
%"struct.std::_Optional_payload.163" = type { %"struct.std::_Optional_payload_base.base.165", [7 x i8] }
%"struct.std::_Optional_payload_base.base.165" = type <{ %"union.std::_Optional_payload_base<llvm::wasm::WasmTableType>::_Storage", i8 }>
%"union.std::_Optional_payload_base<llvm::wasm::WasmTableType>::_Storage" = type { %"struct.llvm::wasm::WasmTableType" }
%"struct.llvm::wasm::WasmTableType" = type { i32, %"struct.llvm::wasm::WasmLimits" }
%"struct.llvm::wasm::WasmLimits" = type { i8, i64, i64 }
%"class.llvm::SectionKind" = type { i8, [3 x i8] }

; Function Attrs: mustprogress nounwind uwtable
define linkonce_odr hidden noundef zeroext i8 @_ZNK4llvm5Twine10getLHSKindEv(ptr noundef nonnull align 8 dereferenceable(34) %0) #0 comdat align 2 {
  %2 = alloca ptr, align 8
  store ptr %0, ptr %2, align 8
  %3 = load ptr, ptr %2, align 8
  %4 = getelementptr inbounds nuw %"class.llvm::Twine", ptr %3, i32 0, i32 2
  %5 = load i8, ptr %4, align 8
  ret i8 %5
}

; Function Attrs: mustprogress nounwind uwtable
define linkonce_odr hidden noundef ptr @_ZN4llvm16cast_convert_valINS_12MCSymbolWasmEPNS_8MCSymbolES3_E4doitEPKS2_(ptr noundef %0) #0 comdat align 2 {
  %2 = alloca ptr, align 8
  store ptr %0, ptr %2, align 8
  %3 = load ptr, ptr %2, align 8
  ret ptr %3
}

; Function Attrs: mustprogress nounwind uwtable
define linkonce_odr hidden noundef zeroext i1 @_ZNK4llvm5Twine7isEmptyEv(ptr noundef nonnull align 8 dereferenceable(34) %0) #0 comdat align 2 {
  %2 = alloca ptr, align 8
  store ptr %0, ptr %2, align 8
  %3 = load ptr, ptr %2, align 8
  %4 = call noundef zeroext i8 @_ZNK4llvm5Twine10getLHSKindEv(ptr noundef nonnull align 8 dereferenceable(34) %3)
  %5 = zext i8 %4 to i32
  %6 = icmp eq i32 %5, 1
  ret i1 %6
}

; Function Attrs: mustprogress nounwind uwtable
define linkonce_odr hidden noundef zeroext i1 @_ZNK4llvm5Twine6isNullEv(ptr noundef nonnull align 8 dereferenceable(34) %0) #0 comdat align 2 {
  %2 = alloca ptr, align 8
  store ptr %0, ptr %2, align 8
  %3 = load ptr, ptr %2, align 8
  %4 = call noundef zeroext i8 @_ZNK4llvm5Twine10getLHSKindEv(ptr noundef nonnull align 8 dereferenceable(34) %3)
  %5 = zext i8 %4 to i32
  %6 = icmp eq i32 %5, 0
  ret i1 %6
}

; Function Attrs: mustprogress nounwind uwtable
define linkonce_odr hidden noundef ptr @_ZN4llvm8CastInfoINS_12MCSymbolWasmEPNS_8MCSymbolEvE6doCastERKS3_(ptr noundef nonnull align 8 dereferenceable(8) %0) #0 comdat align 2 {
  %2 = alloca ptr, align 8
  store ptr %0, ptr %2, align 8
  %3 = load ptr, ptr %2, align 8
  %4 = load ptr, ptr %3, align 8
  %5 = call noundef ptr @_ZN4llvm16cast_convert_valINS_12MCSymbolWasmEPNS_8MCSymbolES3_E4doitEPKS2_(ptr noundef %4)
  ret ptr %5
}

; Function Attrs: mustprogress nounwind uwtable
define linkonce_odr hidden noundef zeroext i1 @_ZNK4llvm5Twine9isNullaryEv(ptr noundef nonnull align 8 dereferenceable(34) %0) #0 comdat align 2 {
  %2 = alloca ptr, align 8
  store ptr %0, ptr %2, align 8
  %3 = load ptr, ptr %2, align 8
  %4 = call noundef zeroext i1 @_ZNK4llvm5Twine6isNullEv(ptr noundef nonnull align 8 dereferenceable(34) %3)
  br i1 %4, label %7, label %5

5:                                                ; preds = %1
  %6 = call noundef zeroext i1 @_ZNK4llvm5Twine7isEmptyEv(ptr noundef nonnull align 8 dereferenceable(34) %3)
  br label %7

7:                                                ; preds = %5, %1
  %8 = phi i1 [ true, %1 ], [ %6, %5 ]
  ret i1 %8
}

; Function Attrs: mustprogress nounwind uwtable
define linkonce_odr hidden void @_ZN4llvm12MCSymbolWasm9setComdatEb(ptr noundef nonnull align 8 dereferenceable(184) %0, i1 noundef zeroext %1) #0 comdat align 2 {
  %3 = alloca ptr, align 8
  %4 = alloca i8, align 1
  store ptr %0, ptr %3, align 8
  %5 = zext i1 %1 to i8
  store i8 %5, ptr %4, align 1
  %6 = load ptr, ptr %3, align 8
  %7 = load i8, ptr %4, align 1
  %8 = trunc i8 %7 to i1
  %9 = getelementptr inbounds nuw %"class.llvm::MCSymbolWasm", ptr %6, i32 0, i32 4
  %10 = zext i1 %8 to i8
  store i8 %10, ptr %9, align 2
  ret void
}

; Function Attrs: mustprogress nounwind uwtable
define linkonce_odr hidden noundef ptr @_ZN4llvm4castINS_12MCSymbolWasmENS_8MCSymbolEEEDcPT0_(ptr noundef %0) #0 comdat {
  %2 = alloca ptr, align 8
  store ptr %0, ptr %2, align 8
  %3 = call noundef ptr @_ZN4llvm8CastInfoINS_12MCSymbolWasmEPNS_8MCSymbolEvE6doCastERKS3_(ptr noundef nonnull align 8 dereferenceable(8) %2)
  ret ptr %3
}

; Function Attrs: mustprogress nounwind uwtable
define linkonce_odr hidden noundef zeroext i1 @_ZNK4llvm5Twine16isTriviallyEmptyEv(ptr noundef nonnull align 8 dereferenceable(34) %0) #0 comdat align 2 {
  %2 = alloca ptr, align 8
  store ptr %0, ptr %2, align 8
  %3 = load ptr, ptr %2, align 8
  %4 = call noundef zeroext i1 @_ZNK4llvm5Twine9isNullaryEv(ptr noundef nonnull align 8 dereferenceable(34) %3)
  ret i1 %4
}

; Function Attrs: mustprogress nounwind uwtable
define dso_local noundef ptr @_ZN4llvm9MCContext14getWasmSectionERKNS_5TwineENS_11SectionKindEjS3_j(ptr noundef nonnull align 8 dereferenceable(2432) %0, ptr noundef nonnull align 8 dereferenceable(34) %1, i32 %2, i32 noundef %3, ptr noundef nonnull align 8 dereferenceable(34) %4, i32 noundef %5) #0 align 2 {
  %7 = alloca %"class.llvm::SectionKind", align 4
  %8 = alloca ptr, align 8
  %9 = alloca ptr, align 8
  %10 = alloca i32, align 4
  %11 = alloca ptr, align 8
  %12 = alloca i32, align 4
  %13 = alloca ptr, align 8
  %14 = alloca %"class.std::__cxx11::basic_string", align 8
  %15 = alloca i1, align 1
  %16 = alloca %"class.llvm::SectionKind", align 4
  store i32 %2, ptr %7, align 4
  store ptr %0, ptr %8, align 8
  store ptr %1, ptr %9, align 8
  store i32 %3, ptr %10, align 4
  store ptr %4, ptr %11, align 8
  store i32 %5, ptr %12, align 4
  %17 = load ptr, ptr %8, align 8
  store ptr null, ptr %13, align 8
  %18 = load ptr, ptr %11, align 8
  %19 = call noundef zeroext i1 @_ZNK4llvm5Twine16isTriviallyEmptyEv(ptr noundef nonnull align 8 dereferenceable(34) %18)
  store i1 false, ptr %15, align 1
  br i1 %19, label %24, label %20

20:                                               ; preds = %6
  %21 = load ptr, ptr %11, align 8
  call void @_ZNK4llvm5Twine3strB5cxx11Ev(ptr dead_on_unwind writable sret(%"class.std::__cxx11::basic_string") align 8 %14, ptr noundef nonnull align 8 dereferenceable(34) %21)
  store i1 true, ptr %15, align 1
  %22 = call noundef zeroext i1 @_ZNKSt7__cxx1112basic_stringIcSt11char_traitsIcESaIcEE5emptyEv(ptr noundef nonnull align 8 dereferenceable(32) %14) #11
  %23 = xor i1 %22, true
  br label %24

24:                                               ; preds = %20, %6
  %25 = phi i1 [ false, %6 ], [ %23, %20 ]
  %26 = load i1, ptr %15, align 1
  br i1 %26, label %27, label %28

27:                                               ; preds = %24
  call void @_ZNSt7__cxx1112basic_stringIcSt11char_traitsIcESaIcEED1Ev(ptr noundef nonnull align 8 dereferenceable(32) %14) #11
  br label %28

28:                                               ; preds = %27, %24
  br i1 %25, label %29, label %34

29:                                               ; preds = %28
  %30 = load ptr, ptr %11, align 8
  %31 = call noundef ptr @_ZN4llvm9MCContext17getOrCreateSymbolERKNS_5TwineE(ptr noundef nonnull align 8 dereferenceable(2432) %17, ptr noundef nonnull align 8 dereferenceable(34) %30)
  %32 = call noundef ptr @_ZN4llvm4castINS_12MCSymbolWasmENS_8MCSymbolEEEDcPT0_(ptr noundef %31)
  store ptr %32, ptr %13, align 8
  %33 = load ptr, ptr %13, align 8
  call void @_ZN4llvm12MCSymbolWasm9setComdatEb(ptr noundef nonnull align 8 dereferenceable(184) %33, i1 noundef zeroext true)
  br label %34

34:                                               ; preds = %29, %28
  %35 = load ptr, ptr %9, align 8
  call void @llvm.memcpy.p0.p0.i64(ptr align 4 %16, ptr align 4 %7, i64 4, i1 false)
  %36 = load i32, ptr %10, align 4
  %37 = load ptr, ptr %13, align 8
  %38 = load i32, ptr %12, align 4
  %39 = load i32, ptr %16, align 4
  %40 = call noundef ptr @_ZN4llvm9MCContext14getWasmSectionERKNS_5TwineENS_11SectionKindEjPKNS_12MCSymbolWasmEj(ptr noundef nonnull align 8 dereferenceable(2432) %17, ptr noundef nonnull align 8 dereferenceable(34) %35, i32 %39, i32 noundef %36, ptr noundef %37, i32 noundef %38)
  ret ptr %40
}