; Function Attrs: mustprogress nounwind uwtable
define dso_local noundef ptr @_ZN4llvm9MCContext14getWasmSectionERKNS_5TwineENS_11SectionKindEjS3_j(ptr noundef nonnull align 8 dereferenceable(2432) %0, ptr noundef nonnull align 8 dereferenceable(34) %1, i32 %2, i32 noundef %3, ptr noundef nonnull align 8 dereferenceable(34) %4, i32 noundef %5) local_unnamed_addr #0 align 2 {
  %7 = alloca %"class.std::__cxx11::basic_string", align 8
  %8 = getelementptr inbounds nuw i8, ptr %4, i64 32
  %9 = load i8, ptr %8, align 8
  %spec.select.i.i = icmp ult i8 %9, 2
  br i1 %spec.select.i.i, label %.thread11, label %10

10:                                               ; preds = %6
  call void @_ZNK4llvm5Twine3strB5cxx11Ev(ptr dead_on_unwind nonnull writable sret(%"class.std::__cxx11::basic_string") align 8 %7, ptr noundef nonnull align 8 dereferenceable(34) %4) #20
  %11 = call noundef zeroext i1 @_ZNKSt7__cxx1112basic_stringIcSt11char_traitsIcESaIcEE5emptyEv(ptr noundef nonnull align 8 dereferenceable(32) %7) #20
  call void @_ZNSt7__cxx1112basic_stringIcSt11char_traitsIcESaIcEED1Ev(ptr noundef nonnull align 8 dereferenceable(32) %7) #20
  br i1 %11, label %.thread11, label %12

12:                                               ; preds = %10
  %13 = call noundef ptr @_ZN4llvm9MCContext17getOrCreateSymbolERKNS_5TwineE(ptr noundef nonnull align 8 dereferenceable(2432) %0, ptr noundef nonnull align 8 dereferenceable(34) %4)
  %14 = getelementptr inbounds nuw i8, ptr %13, i64 42
  store i8 1, ptr %14, align 2
  br label %.thread11

.thread11:                                        ; preds = %6, %12, %10
  %.0 = phi ptr [ %13, %12 ], [ null, %10 ], [ null, %6 ]
  %15 = call noundef ptr @_ZN4llvm9MCContext14getWasmSectionERKNS_5TwineENS_11SectionKindEjPKNS_12MCSymbolWasmEj(ptr noundef nonnull align 8 dereferenceable(2432) %0, ptr noundef nonnull align 8 dereferenceable(34) %1, i32 %2, i32 noundef %3, ptr noundef %.0, i32 noundef %5)
  ret ptr %15
}